target datalayout = "e-m:e-p270:32:32-p271:32:32-p272:64:64-i64:64-i128:128-f80:128-n8:16:32:64-S128"
target triple = "x86_64-unknown-linux-gnu"

%"class.icu_75::MessageFormat" = type { %"class.icu_75::Format.base", [6 x i8], %"class.icu_75::Locale", %"class.icu_75::MessagePattern", ptr, i32, ptr, i32, i32, i8, ptr, ptr, ptr, ptr, %"class.icu_75::MessageFormat::PluralSelectorProvider", %"class.icu_75::MessageFormat::PluralSelectorProvider" }
%"class.icu_75::Format.base" = type <{ %"class.icu_75::UObject", [157 x i8], [157 x i8] }>
%"class.icu_75::UObject" = type { ptr }
%"class.icu_75::Locale" = type <{ %"class.icu_75::UObject", [12 x i8], [6 x i8], [4 x i8], [2 x i8], i32, [4 x i8], ptr, [157 x i8], [3 x i8], ptr, i8, [7 x i8] }>
%"class.icu_75::MessagePattern" = type <{ %"class.icu_75::UObject", i32, [4 x i8], %"class.icu_75::UnicodeString", ptr, ptr, i32, [4 x i8], ptr, ptr, i32, i8, i8, i8, i8 }>
%"class.icu_75::UnicodeString" = type { %"class.icu_75::Replaceable", %"union.icu_75::UnicodeString::StackBufferOrFields" }
%"class.icu_75::Replaceable" = type { %"class.icu_75::UObject" }
%"union.icu_75::UnicodeString::StackBufferOrFields" = type { %struct.anon.0, [32 x i8] }
%struct.anon.0 = type { i16, i32, i32, ptr }
%"class.icu_75::MessageFormat::PluralSelectorProvider" = type <{ %"class.icu_75::PluralFormat::PluralSelector", ptr, ptr, i32, [4 x i8] }>
%"class.icu_75::PluralFormat::PluralSelector" = type { ptr }

; Function Attrs: mustprogress uwtable
define linkonce_odr void @_ZN6icu_7513MessageFormat11DummyFormatC2Ev(ptr noundef nonnull align 8 dereferenceable(322) %this) unnamed_addr #1 comdat align 2 {
entry:
  %this.addr = alloca ptr, align 8
  store ptr %this, ptr %this.addr, align 8
  %this1 = load ptr, ptr %this.addr, align 8
  call void @_ZN6icu_756FormatC2Ev(ptr noundef nonnull align 8 dereferenceable(322) %this1)
  store ptr getelementptr inbounds ({ [11 x ptr] }, ptr @_ZTVN6icu_7513MessageFormat11DummyFormatE, i32 0, i32 0, i32 2), ptr %this1, align 8
  ret void
}

; Function Attrs: mustprogress nounwind uwtable
define internal noundef signext i8 @_ZL9U_FAILURE10UErrorCode(i32 noundef %code) #0 {
entry:
  %code.addr = alloca i32, align 4
  store i32 %code, ptr %code.addr, align 4
  %0 = load i32, ptr %code.addr, align 4
  %cmp = icmp sgt i32 %0, 0
  %conv = zext i1 %cmp to i8
  ret i8 %conv
}

; Function Attrs: mustprogress uwtable
define void @_ZN6icu_7513MessageFormat17setArgStartFormatEiPNS_6FormatER10UErrorCode(ptr noundef nonnull align 8 dereferenceable(816) %this, i32 noundef %argStart, ptr noundef %formatter, ptr noundef nonnull align 4 dereferenceable(4) %status) #1 align 2 personality ptr @__gxx_personality_v0 {
entry:
  %this.addr = alloca ptr, align 8
  %argStart.addr = alloca i32, align 4
  %formatter.addr = alloca ptr, align 8
  %status.addr = alloca ptr, align 8
  %saved-rvalue = alloca ptr, align 8
  %cleanup.cond = alloca i1, align 1
  %exn.slot = alloca ptr, align 8
  %ehselector.slot = alloca i32, align 4
  store ptr %this, ptr %this.addr, align 8
  store i32 %argStart, ptr %argStart.addr, align 4
  store ptr %formatter, ptr %formatter.addr, align 8
  store ptr %status, ptr %status.addr, align 8
  %this1 = load ptr, ptr %this.addr, align 8
  %0 = load ptr, ptr %status.addr, align 8
  %1 = load i32, ptr %0, align 4
  %call = call noundef signext i8 @_ZL9U_FAILURE10UErrorCode(i32 noundef %1)
  %tobool = icmp ne i8 %call, 0
  br i1 %tobool, label %if.then, label %if.end

if.then:                                          ; preds = %entry
  %2 = load ptr, ptr %formatter.addr, align 8
  %isnull = icmp eq ptr %2, null
  br i1 %isnull, label %delete.end, label %delete.notnull

delete.notnull:                                   ; preds = %if.then
  %vtable = load ptr, ptr %2, align 8
  %vfn = getelementptr inbounds ptr, ptr %vtable, i64 1
  %3 = load ptr, ptr %vfn, align 8
  call void %3(ptr noundef nonnull align 8 dereferenceable(322) %2) #11
  br label %delete.end

delete.end:                                       ; preds = %delete.notnull, %if.then
  br label %return

if.end:                                           ; preds = %entry
  %cachedFormatters = getelementptr inbounds %"class.icu_75::MessageFormat", ptr %this1, i32 0, i32 12
  %4 = load ptr, ptr %cachedFormatters, align 8
  %cmp = icmp eq ptr %4, null
  br i1 %cmp, label %if.then2, label %if.end16

if.then2:                                         ; preds = %if.end
  %5 = load ptr, ptr %status.addr, align 8
  %call3 = call ptr @uhash_open_75(ptr noundef @uhash_hashLong_75, ptr noundef @uhash_compareLong_75, ptr noundef @_ZL19equalFormatsForHash8UElementS_, ptr noundef %5)
  %cachedFormatters4 = getelementptr inbounds %"class.icu_75::MessageFormat", ptr %this1, i32 0, i32 12
  store ptr %call3, ptr %cachedFormatters4, align 8
  %6 = load ptr, ptr %status.addr, align 8
  %7 = load i32, ptr %6, align 4
  %call5 = call noundef signext i8 @_ZL9U_FAILURE10UErrorCode(i32 noundef %7)
  %tobool6 = icmp ne i8 %call5, 0
  br i1 %tobool6, label %if.then7, label %if.end13

if.then7:                                         ; preds = %if.then2
  %8 = load ptr, ptr %formatter.addr, align 8
  %isnull8 = icmp eq ptr %8, null
  br i1 %isnull8, label %delete.end12, label %delete.notnull9

delete.notnull9:                                  ; preds = %if.then7
  %vtable10 = load ptr, ptr %8, align 8
  %vfn11 = getelementptr inbounds ptr, ptr %vtable10, i64 1
  %9 = load ptr, ptr %vfn11, align 8
  call void %9(ptr noundef nonnull align 8 dereferenceable(322) %8) #11
  br label %delete.end12

delete.end12:                                     ; preds = %delete.notnull9, %if.then7
  br label %return

if.end13:                                         ; preds = %if.then2
  %cachedFormatters14 = getelementptr inbounds %"class.icu_75::MessageFormat", ptr %this1, i32 0, i32 12
  %10 = load ptr, ptr %cachedFormatters14, align 8
  %call15 = call ptr @uhash_setValueDeleter_75(ptr noundef %10, ptr noundef @uprv_deleteUObject_75)
  br label %if.end16

if.end16:                                         ; preds = %if.end13, %if.end
  %11 = load ptr, ptr %formatter.addr, align 8
  %cmp17 = icmp eq ptr %11, null
  br i1 %cmp17, label %if.then18, label %if.end20

if.then18:                                        ; preds = %if.end16
  %call19 = call noundef ptr @_ZN6icu_757UMemorynwEm(i64 noundef 328) #11
  %new.isnull = icmp eq ptr %call19, null
  store i1 false, ptr %cleanup.cond, align 1
  br i1 %new.isnull, label %new.cont, label %new.notnull

new.notnull:                                      ; preds = %if.then18
  store ptr %call19, ptr %saved-rvalue, align 8
  store i1 true, ptr %cleanup.cond, align 1
  call void @llvm.memset.p0.i64(ptr align 8 %call19, i8 0, i64 328, i1 false)
  invoke void @_ZN6icu_7513MessageFormat11DummyFormatC2Ev(ptr noundef nonnull align 8 dereferenceable(322) %call19)
          to label %invoke.cont unwind label %lpad

invoke.cont:                                      ; preds = %new.notnull
  br label %new.cont

new.cont:                                         ; preds = %invoke.cont, %if.then18
  %12 = phi ptr [ %call19, %invoke.cont ], [ null, %if.then18 ]
  store ptr %12, ptr %formatter.addr, align 8
  br label %if.end20

lpad:                                             ; preds = %new.notnull
  %13 = landingpad { ptr, i32 }
          cleanup
  %14 = extractvalue { ptr, i32 } %13, 0
  store ptr %14, ptr %exn.slot, align 8
  %15 = extractvalue { ptr, i32 } %13, 1
  store i32 %15, ptr %ehselector.slot, align 4
  %cleanup.is_active = load i1, ptr %cleanup.cond, align 1
  br i1 %cleanup.is_active, label %cleanup.action, label %cleanup.done

cleanup.action:                                   ; preds = %lpad
  %16 = load ptr, ptr %saved-rvalue, align 8
  call void @_ZN6icu_757UMemorydlEPv(ptr noundef %16) #11
  br label %cleanup.done

cleanup.done:                                     ; preds = %cleanup.action, %lpad
  br label %eh.resume

if.end20:                                         ; preds = %new.cont, %if.end16
  %cachedFormatters21 = getelementptr inbounds %"class.icu_75::MessageFormat", ptr %this1, i32 0, i32 12
  %17 = load ptr, ptr %cachedFormatters21, align 8
  %18 = load i32, ptr %argStart.addr, align 4
  %19 = load ptr, ptr %formatter.addr, align 8
  %20 = load ptr, ptr %status.addr, align 8
  %call22 = call ptr @uhash_iput_75(ptr noundef %17, i32 noundef %18, ptr noundef %19, ptr noundef %20)
  br label %return

return:                                           ; preds = %if.end20, %delete.end12, %delete.end
  ret void

eh.resume:                                        ; preds = %cleanup.done
  %exn = load ptr, ptr %exn.slot, align 8
  %sel = load i32, ptr %ehselector.slot, align 4
  %lpad.val = insertvalue { ptr, i32 } poison, ptr %exn, 0
  %lpad.val23 = insertvalue { ptr, i32 } %lpad.val, i32 %sel, 1
  resume { ptr, i32 } %lpad.val23
}