; Function Attrs: mustprogress uwtable
define void @_ZN6icu_7513MessageFormat17setArgStartFormatEiPNS_6FormatER10UErrorCode(ptr nocapture noundef nonnull align 8 dereferenceable(816) %this, i32 noundef %argStart, ptr noundef %formatter, ptr noundef nonnull align 4 dereferenceable(4) %status) local_unnamed_addr #1 align 2 personality ptr @__gxx_personality_v0 {
entry:
  %0 = load i32, ptr %status, align 4
  %cmp.i = icmp slt i32 %0, 1
  br i1 %cmp.i, label %if.end, label %if.then

if.then:                                          ; preds = %entry
  %isnull = icmp eq ptr %formatter, null
  br i1 %isnull, label %return, label %delete.notnull

delete.notnull:                                   ; preds = %if.then
  %vtable = load ptr, ptr %formatter, align 8
  %vfn = getelementptr inbounds i8, ptr %vtable, i64 8
  %1 = load ptr, ptr %vfn, align 8
  tail call void %1(ptr noundef nonnull align 8 dereferenceable(322) %formatter) #19
  br label %return

if.end:                                           ; preds = %entry
  %cachedFormatters = getelementptr inbounds i8, ptr %this, i64 736
  %2 = load ptr, ptr %cachedFormatters, align 8
  %cmp = icmp eq ptr %2, null
  br i1 %cmp, label %if.then2, label %if.end16

if.then2:                                         ; preds = %if.end
  %call3 = tail call ptr @uhash_open_75(ptr noundef nonnull @uhash_hashLong_75, ptr noundef nonnull @uhash_compareLong_75, ptr noundef nonnull @_ZL19equalFormatsForHash8UElementS_, ptr noundef nonnull %status)
  store ptr %call3, ptr %cachedFormatters, align 8
  %3 = load i32, ptr %status, align 4
  %cmp.i7 = icmp slt i32 %3, 1
  br i1 %cmp.i7, label %if.end13, label %if.then7

if.then7:                                         ; preds = %if.then2
  %isnull8 = icmp eq ptr %formatter, null
  br i1 %isnull8, label %return, label %delete.notnull9

delete.notnull9:                                  ; preds = %if.then7
  %vtable10 = load ptr, ptr %formatter, align 8
  %vfn11 = getelementptr inbounds i8, ptr %vtable10, i64 8
  %4 = load ptr, ptr %vfn11, align 8
  tail call void %4(ptr noundef nonnull align 8 dereferenceable(322) %formatter) #19
  br label %return

if.end13:                                         ; preds = %if.then2
  %call15 = tail call ptr @uhash_setValueDeleter_75(ptr noundef %call3, ptr noundef nonnull @uprv_deleteUObject_75)
  br label %if.end16

if.end16:                                         ; preds = %if.end13, %if.end
  %cmp17 = icmp eq ptr %formatter, null
  br i1 %cmp17, label %if.then18, label %if.end20

if.then18:                                        ; preds = %if.end16
  %call19 = tail call noundef ptr @_ZN6icu_757UMemorynwEm(i64 noundef 328) #19
  %new.isnull = icmp eq ptr %call19, null
  br i1 %new.isnull, label %if.end20, label %new.notnull

new.notnull:                                      ; preds = %if.then18
  tail call void @llvm.memset.p0.i64(ptr noundef nonnull align 8 dereferenceable(328) %call19, i8 0, i64 328, i1 false)
  invoke void @_ZN6icu_756FormatC2Ev(ptr noundef nonnull align 8 dereferenceable(322) %call19)
          to label %_ZN6icu_7513MessageFormat11DummyFormatC2Ev.exit unwind label %lpad

_ZN6icu_7513MessageFormat11DummyFormatC2Ev.exit:  ; preds = %new.notnull
  store ptr getelementptr inbounds ({ [11 x ptr] }, ptr @_ZTVN6icu_7513MessageFormat11DummyFormatE, i64 0, i32 0, i64 2), ptr %call19, align 8
  br label %if.end20

lpad:                                             ; preds = %new.notnull
  %5 = landingpad { ptr, i32 }
          cleanup
  tail call void @_ZN6icu_757UMemorydlEPv(ptr noundef nonnull %call19) #19
  resume { ptr, i32 } %5

if.end20:                                         ; preds = %_ZN6icu_7513MessageFormat11DummyFormatC2Ev.exit, %if.then18, %if.end16
  %formatter.addr.0 = phi ptr [ %formatter, %if.end16 ], [ null, %if.then18 ], [ %call19, %_ZN6icu_7513MessageFormat11DummyFormatC2Ev.exit ]
  %6 = load ptr, ptr %cachedFormatters, align 8
  %call22 = tail call ptr @uhash_iput_75(ptr noundef %6, i32 noundef %argStart, ptr noundef %formatter.addr.0, ptr noundef nonnull %status)
  br label %return

return:                                           ; preds = %if.then7, %delete.notnull9, %if.then, %delete.notnull, %if.end20
  ret void
}